; ModuleID = '15/1426.c'
source_filename = "15/1426.c"
target datalayout = "e-m:e-p270:32:32-p271:32:32-p272:64:64-i64:64-f80:128-n8:16:32:64-S128"
target triple = "x86_64-pc-linux-gnu"

@.str = private unnamed_addr constant [3 x i8] c"%d\00", align 1

; Function Attrs: noinline nounwind uwtable
define dso_local i32 @main() #0 {
  %1 = alloca i32, align 4
  %2 = alloca i32, align 4
  %3 = alloca i32, align 4
  %4 = alloca i32, align 4
  %5 = alloca i32, align 4
  %6 = alloca i32, align 4
  %7 = alloca i32, align 4
  %8 = alloca i32, align 4
  %9 = alloca i32, align 4
  %10 = alloca i8*, align 8
  %11 = alloca i64, align 8
  %12 = alloca i64, align 8
  store i32 0, i32* %1, align 4
  store i32 0, i32* %9, align 4
  %13 = call i32 (i8*, ...) @__isoc99_scanf(i8* getelementptr inbounds ([3 x i8], [3 x i8]* @.str, i64 0, i64 0), i32* %2)
  %14 = load i32, i32* %2, align 4
  %15 = zext i32 %14 to i64
  %16 = load i32, i32* %2, align 4
  %17 = zext i32 %16 to i64
  %18 = call i8* @llvm.stacksave()
  store i8* %18, i8** %10, align 8
  %19 = mul nuw i64 %15, %17
  %20 = alloca i32, i64 %19, align 16
  store i64 %15, i64* %11, align 8
  store i64 %17, i64* %12, align 8
  store i32 0, i32* %3, align 4
  br label %21

21:                                               ; preds = %43, %0
  %22 = load i32, i32* %3, align 4
  %23 = load i32, i32* %2, align 4
  %24 = icmp slt i32 %22, %23
  br i1 %24, label %25, label %46

25:                                               ; preds = %21
  store i32 0, i32* %6, align 4
  br label %26

26:                                               ; preds = %39, %25
  %27 = load i32, i32* %6, align 4
  %28 = load i32, i32* %2, align 4
  %29 = icmp slt i32 %27, %28
  br i1 %29, label %30, label %42

30:                                               ; preds = %26
  %31 = load i32, i32* %3, align 4
  %32 = sext i32 %31 to i64
  %33 = mul nsw i64 %32, %17
  %34 = getelementptr inbounds i32, i32* %20, i64 %33
  %35 = load i32, i32* %6, align 4
  %36 = sext i32 %35 to i64
  %37 = getelementptr inbounds i32, i32* %34, i64 %36
  %38 = call i32 (i8*, ...) @__isoc99_scanf(i8* getelementptr inbounds ([3 x i8], [3 x i8]* @.str, i64 0, i64 0), i32* %37)
  br label %39

39:                                               ; preds = %30
  %40 = load i32, i32* %6, align 4
  %41 = add nsw i32 %40, 1
  store i32 %41, i32* %6, align 4
  br label %26

42:                                               ; preds = %26
  br label %43

43:                                               ; preds = %42
  %44 = load i32, i32* %3, align 4
  %45 = add nsw i32 %44, 1
  store i32 %45, i32* %3, align 4
  br label %21

46:                                               ; preds = %21
  store i32 1, i32* %3, align 4
  br label %47

47:                                               ; preds = %159, %46
  %48 = load i32, i32* %3, align 4
  %49 = load i32, i32* %2, align 4
  %50 = sub nsw i32 %49, 1
  %51 = icmp slt i32 %48, %50
  br i1 %51, label %52, label %162

52:                                               ; preds = %47
  store i32 1, i32* %6, align 4
  br label %53

53:                                               ; preds = %155, %52
  %54 = load i32, i32* %6, align 4
  %55 = load i32, i32* %2, align 4
  %56 = sub nsw i32 %55, 1
  %57 = icmp slt i32 %54, %56
  br i1 %57, label %58, label %158

58:                                               ; preds = %53
  %59 = load i32, i32* %3, align 4
  store i32 %59, i32* %4, align 4
  br label %60

60:                                               ; preds = %151, %58
  %61 = load i32, i32* %3, align 4
  %62 = sext i32 %61 to i64
  %63 = mul nsw i64 %62, %17
  %64 = getelementptr inbounds i32, i32* %20, i64 %63
  %65 = load i32, i32* %6, align 4
  %66 = sext i32 %65 to i64
  %67 = getelementptr inbounds i32, i32* %64, i64 %66
  %68 = load i32, i32* %67, align 4
  %69 = icmp eq i32 %68, 255
  br i1 %69, label %70, label %73

70:                                               ; preds = %60
  %71 = load i32, i32* %4, align 4
  %72 = icmp sge i32 %71, 0
  br label %73

73:                                               ; preds = %70, %60
  %74 = phi i1 [ false, %60 ], [ %72, %70 ]
  br i1 %74, label %75, label %154

75:                                               ; preds = %73
  %76 = load i32, i32* %4, align 4
  %77 = sext i32 %76 to i64
  %78 = mul nsw i64 %77, %17
  %79 = getelementptr inbounds i32, i32* %20, i64 %78
  %80 = load i32, i32* %6, align 4
  %81 = sext i32 %80 to i64
  %82 = getelementptr inbounds i32, i32* %79, i64 %81
  %83 = load i32, i32* %82, align 4
  %84 = icmp eq i32 %83, 0
  br i1 %84, label %85, label %150

85:                                               ; preds = %75
  %86 = load i32, i32* %3, align 4
  store i32 %86, i32* %5, align 4
  br label %87

87:                                               ; preds = %146, %85
  %88 = load i32, i32* %5, align 4
  %89 = load i32, i32* %2, align 4
  %90 = icmp slt i32 %88, %89
  br i1 %90, label %91, label %149

91:                                               ; preds = %87
  %92 = load i32, i32* %5, align 4
  %93 = sext i32 %92 to i64
  %94 = mul nsw i64 %93, %17
  %95 = getelementptr inbounds i32, i32* %20, i64 %94
  %96 = load i32, i32* %6, align 4
  %97 = sext i32 %96 to i64
  %98 = getelementptr inbounds i32, i32* %95, i64 %97
  %99 = load i32, i32* %98, align 4
  %100 = icmp eq i32 %99, 0
  br i1 %100, label %101, label %145

101:                                              ; preds = %91
  %102 = load i32, i32* %6, align 4
  store i32 %102, i32* %7, align 4
  br label %103

103:                                              ; preds = %141, %101
  %104 = load i32, i32* %7, align 4
  %105 = icmp sge i32 %104, 0
  br i1 %105, label %106, label %144

106:                                              ; preds = %103
  %107 = load i32, i32* %3, align 4
  %108 = sext i32 %107 to i64
  %109 = mul nsw i64 %108, %17
  %110 = getelementptr inbounds i32, i32* %20, i64 %109
  %111 = load i32, i32* %7, align 4
  %112 = sext i32 %111 to i64
  %113 = getelementptr inbounds i32, i32* %110, i64 %112
  %114 = load i32, i32* %113, align 4
  %115 = icmp eq i32 %114, 0
  br i1 %115, label %116, label %140

116:                                              ; preds = %106
  %117 = load i32, i32* %6, align 4
  store i32 %117, i32* %8, align 4
  br label %118

118:                                              ; preds = %136, %116
  %119 = load i32, i32* %8, align 4
  %120 = load i32, i32* %2, align 4
  %121 = icmp sle i32 %119, %120
  br i1 %121, label %122, label %139

122:                                              ; preds = %118
  %123 = load i32, i32* %3, align 4
  %124 = sext i32 %123 to i64
  %125 = mul nsw i64 %124, %17
  %126 = getelementptr inbounds i32, i32* %20, i64 %125
  %127 = load i32, i32* %8, align 4
  %128 = sext i32 %127 to i64
  %129 = getelementptr inbounds i32, i32* %126, i64 %128
  %130 = load i32, i32* %129, align 4
  %131 = icmp eq i32 %130, 0
  br i1 %131, label %132, label %135

132:                                              ; preds = %122
  %133 = load i32, i32* %9, align 4
  %134 = add nsw i32 %133, 1
  store i32 %134, i32* %9, align 4
  br label %139

135:                                              ; preds = %122
  br label %136

136:                                              ; preds = %135
  %137 = load i32, i32* %8, align 4
  %138 = add nsw i32 %137, 1
  store i32 %138, i32* %8, align 4
  br label %118

139:                                              ; preds = %132, %118
  br label %144

140:                                              ; preds = %106
  br label %141

141:                                              ; preds = %140
  %142 = load i32, i32* %7, align 4
  %143 = add nsw i32 %142, -1
  store i32 %143, i32* %7, align 4
  br label %103

144:                                              ; preds = %139, %103
  br label %149

145:                                              ; preds = %91
  br label %146

146:                                              ; preds = %145
  %147 = load i32, i32* %5, align 4
  %148 = add nsw i32 %147, 1
  store i32 %148, i32* %5, align 4
  br label %87

149:                                              ; preds = %144, %87
  br label %154

150:                                              ; preds = %75
  br label %151

151:                                              ; preds = %150
  %152 = load i32, i32* %4, align 4
  %153 = add nsw i32 %152, -1
  store i32 %153, i32* %4, align 4
  br label %60

154:                                              ; preds = %149, %73
  br label %155

155:                                              ; preds = %154
  %156 = load i32, i32* %6, align 4
  %157 = add nsw i32 %156, 1
  store i32 %157, i32* %6, align 4
  br label %53

158:                                              ; preds = %53
  br label %159

159:                                              ; preds = %158
  %160 = load i32, i32* %3, align 4
  %161 = add nsw i32 %160, 1
  store i32 %161, i32* %3, align 4
  br label %47

162:                                              ; preds = %47
  %163 = load i32, i32* %9, align 4
  %164 = call i32 (i8*, ...) @printf(i8* getelementptr inbounds ([3 x i8], [3 x i8]* @.str, i64 0, i64 0), i32 %163)
  store i32 0, i32* %1, align 4
  %165 = load i8*, i8** %10, align 8
  call void @llvm.stackrestore(i8* %165)
  %166 = load i32, i32* %1, align 4
  ret i32 %166
}

declare dso_local i32 @__isoc99_scanf(i8*, ...) #1

; Function Attrs: nounwind
declare i8* @llvm.stacksave() #2

declare dso_local i32 @printf(i8*, ...) #1

; Function Attrs: nounwind
declare void @llvm.stackrestore(i8*) #2


!llvm.module.flags = !{!0}
!llvm.ident = !{!1}

!0 = !{i32 1, !"wchar_size", i32 4}
!1 = !{!"clang version 10.0.0-4ubuntu1 "}
